(lp0
ccopy_reg
_reconstructor
p1
(ceuclid
Quaternion
p2
c__builtin__
object
p3
Ntp4
Rp5
(dp6
S'y'
p7
F0.011005922785527564
sS'x'
p8
F0.000990985659648998
sS'z'
p9
F-1.0907377635612735e-05
sS'w'
p10
F0.9999389418819984
sbag1
(g2
g3
Ntp11
Rp12
(dp13
g7
F0.011005922785527564
sg8
F0.000990985659648998
sg9
F-1.0907377635612735e-05
sg10
F0.9999389418819984
sbag1
(g2
g3
Ntp14
Rp15
(dp16
g7
F0.011005922785527564
sg8
F0.000990985659648998
sg9
F-1.0907377635612735e-05
sg10
F0.9999389418819984
sbag1
(g2
g3
Ntp17
Rp18
(dp19
g7
F0.011005922785527564
sg8
F0.000990985659648998
sg9
F-1.0907377635612735e-05
sg10
F0.9999389418819984
sbag1
(g2
g3
Ntp20
Rp21
(dp22
g7
F0.011005922785527564
sg8
F0.000990985659648998
sg9
F-1.0907377635612735e-05
sg10
F0.9999389418819984
sbag1
(g2
g3
Ntp23
Rp24
(dp25
g7
F0.011005922785527564
sg8
F0.000990985659648998
sg9
F-1.0907377635612735e-05
sg10
F0.9999389418819984
sbag1
(g2
g3
Ntp26
Rp27
(dp28
g7
F0.1225297884951023
sg8
F0.13551432527248103
sg9
F-0.016891280966137005
sg10
F0.9830244163827331
sbag1
(g2
g3
Ntp29
Rp30
(dp31
g7
F0.011005922899225683
sg8
F0.0009909856371250528
sg9
F-1.0907377804499454e-05
sg10
F0.9999389418807694
sba.