(lp0
ccopy_reg
_reconstructor
p1
(ceuclid
Vector3
p2
c__builtin__
object
p3
Ntp4
Rp5
(dp6
S'y'
p7
F-0.9999576850605957
sS'x'
p8
F4.325812183795825
sS'z'
p9
F5.38395055063077
sbag1
(g2
g3
Ntp10
Rp11
(dp12
g7
F-0.9999576850605957
sg8
F4.325812183795825
sg9
F5.38395055063077
sbag1
(g2
g3
Ntp13
Rp14
(dp15
g7
F-0.9999576850605957
sg8
F4.325812183795825
sg9
F5.38395055063077
sbag1
(g2
g3
Ntp16
Rp17
(dp18
g7
F-0.9999576850605957
sg8
F4.325812183795825
sg9
F5.38395055063077
sbag1
(g2
g3
Ntp19
Rp20
(dp21
g7
F-0.9966459947817815
sg8
F5.7215206140064465
sg9
F3.6820143625264294
sbag1
(g2
g3
Ntp22
Rp23
(dp24
g7
F-0.9944990124669222
sg8
F6.163020402251283
sg9
F2.588843098323954
sbag1
(g2
g3
Ntp25
Rp26
(dp27
g7
F-0.9944990124669222
sg8
F6.163020402251283
sg9
F2.588843098323954
sbag1
(g2
g3
Ntp28
Rp29
(dp30
g7
F-0.9999361634254456
sg8
F4.325819969177246
sg9
F5.383841037750244
sba.